target datalayout = "e-m:e-p270:32:32-p271:32:32-p272:64:64-i64:64-i128:128-f80:128-n8:16:32:64-S128"
target triple = "x86_64-pc-linux-gnu"

@.str.6 = private unnamed_addr constant [20 x i8] c"%s expected, got %s\00", align 1

; Function Attrs: nounwind uwtable
define dso_local i32 @luaL_typerror(ptr noundef %0, i32 noundef %1, ptr noundef %2) #0 {
  %4 = alloca ptr, align 8
  %5 = alloca i32, align 4
  %6 = alloca ptr, align 8
  %7 = alloca ptr, align 8
  store ptr %0, ptr %4, align 8, !tbaa !4
  store i32 %1, ptr %5, align 4, !tbaa !9
  store ptr %2, ptr %6, align 8, !tbaa !11
  call void @llvm.lifetime.start.p0(i64 8, ptr %7) #9
  %8 = load ptr, ptr %4, align 8, !tbaa !4
  %9 = load ptr, ptr %6, align 8, !tbaa !11
  %10 = load ptr, ptr %4, align 8, !tbaa !4
  %11 = load ptr, ptr %4, align 8, !tbaa !4
  %12 = load i32, ptr %5, align 4, !tbaa !9
  %13 = call i32 @lua_type(ptr noundef %11, i32 noundef %12)
  %14 = call ptr @lua_typename(ptr noundef %10, i32 noundef %13)
  %15 = call ptr (ptr, ptr, ...) @lua_pushfstring(ptr noundef %8, ptr noundef @.str.6, ptr noundef %9, ptr noundef %14)
  store ptr %15, ptr %7, align 8, !tbaa !11
  %16 = load ptr, ptr %4, align 8, !tbaa !4
  %17 = load i32, ptr %5, align 4, !tbaa !9
  %18 = load ptr, ptr %7, align 8, !tbaa !11
  %19 = call i32 @luaL_argerror(ptr noundef %16, i32 noundef %17, ptr noundef %18)
  call void @llvm.lifetime.end.p0(i64 8, ptr %7) #9
  ret i32 %19
}

; Function Attrs: nounwind uwtable
define dso_local ptr @luaL_checkudata(ptr noundef %0, i32 noundef %1, ptr noundef %2) #0 {
  %4 = alloca ptr, align 8
  %5 = alloca ptr, align 8
  %6 = alloca i32, align 4
  %7 = alloca ptr, align 8
  %8 = alloca ptr, align 8
  %9 = alloca i32, align 4
  store ptr %0, ptr %5, align 8, !tbaa !4
  store i32 %1, ptr %6, align 4, !tbaa !9
  store ptr %2, ptr %7, align 8, !tbaa !11
  call void @llvm.lifetime.start.p0(i64 8, ptr %8) #9
  %10 = load ptr, ptr %5, align 8, !tbaa !4
  %11 = load i32, ptr %6, align 4, !tbaa !9
  %12 = call ptr @lua_touserdata(ptr noundef %10, i32 noundef %11)
  store ptr %12, ptr %8, align 8, !tbaa !25
  %13 = load ptr, ptr %8, align 8, !tbaa !25
  %14 = icmp ne ptr %13, null
  br i1 %14, label %15, label %31

15:                                               ; preds = %3
  %16 = load ptr, ptr %5, align 8, !tbaa !4
  %17 = load i32, ptr %6, align 4, !tbaa !9
  %18 = call i32 @lua_getmetatable(ptr noundef %16, i32 noundef %17)
  %19 = icmp ne i32 %18, 0
  br i1 %19, label %20, label %30

20:                                               ; preds = %15
  %21 = load ptr, ptr %5, align 8, !tbaa !4
  %22 = load ptr, ptr %7, align 8, !tbaa !11
  call void @lua_getfield(ptr noundef %21, i32 noundef -10000, ptr noundef %22)
  %23 = load ptr, ptr %5, align 8, !tbaa !4
  %24 = call i32 @lua_rawequal(ptr noundef %23, i32 noundef -1, i32 noundef -2)
  %25 = icmp ne i32 %24, 0
  br i1 %25, label %26, label %29

26:                                               ; preds = %20
  %27 = load ptr, ptr %5, align 8, !tbaa !4
  call void @lua_settop(ptr noundef %27, i32 noundef -3)
  %28 = load ptr, ptr %8, align 8, !tbaa !25
  store ptr %28, ptr %4, align 8
  store i32 1, ptr %9, align 4
  br label %36

29:                                               ; preds = %20
  br label %30

30:                                               ; preds = %29, %15
  br label %31

31:                                               ; preds = %30, %3
  %32 = load ptr, ptr %5, align 8, !tbaa !4
  %33 = load i32, ptr %6, align 4, !tbaa !9
  %34 = load ptr, ptr %7, align 8, !tbaa !11
  %35 = call i32 @luaL_typerror(ptr noundef %32, i32 noundef %33, ptr noundef %34)
  store ptr null, ptr %4, align 8
  store i32 1, ptr %9, align 4
  br label %36

36:                                               ; preds = %31, %26
  call void @llvm.lifetime.end.p0(i64 8, ptr %8) #9
  %37 = load ptr, ptr %4, align 8
  ret ptr %37
}