; Function Attrs: nounwind uwtable
define dso_local ptr @luaL_checkudata(ptr noundef %0, i32 noundef %1, ptr noundef %2) local_unnamed_addr #0 {
  %4 = tail call ptr @lua_touserdata(ptr noundef %0, i32 noundef %1) #17
  %.not = icmp eq ptr %4, null
  br i1 %.not, label %10, label %5

5:                                                ; preds = %3
  %6 = tail call i32 @lua_getmetatable(ptr noundef %0, i32 noundef %1) #17
  %.not14 = icmp eq i32 %6, 0
  br i1 %.not14, label %10, label %7

7:                                                ; preds = %5
  tail call void @lua_getfield(ptr noundef %0, i32 noundef -10000, ptr noundef %2) #17
  %8 = tail call i32 @lua_rawequal(ptr noundef %0, i32 noundef -1, i32 noundef -2) #17
  %.not15 = icmp eq i32 %8, 0
  br i1 %.not15, label %10, label %9

9:                                                ; preds = %7
  tail call void @lua_settop(ptr noundef %0, i32 noundef -3) #17
  br label %15

10:                                               ; preds = %5, %7, %3
  %11 = tail call i32 @lua_type(ptr noundef %0, i32 noundef %1) #17
  %12 = tail call ptr @lua_typename(ptr noundef %0, i32 noundef %11) #17
  %13 = tail call ptr (ptr, ptr, ...) @lua_pushfstring(ptr noundef %0, ptr noundef nonnull @.str.6, ptr noundef %2, ptr noundef %12) #17
  %14 = tail call i32 @luaL_argerror(ptr noundef %0, i32 noundef %1, ptr noundef %13)
  br label %15

15:                                               ; preds = %10, %9
  %.0 = phi ptr [ %4, %9 ], [ null, %10 ]
  ret ptr %.0
}